target datalayout = "e-m:e-p270:32:32-p271:32:32-p272:64:64-i64:64-i128:128-f80:128-n8:16:32:64-S128"
target triple = "x86_64-pc-linux-gnu"

%struct.H5F_trav_obj_cnt_t = type { i64, i32 }

@H5_libterm_g = external global i8, align 1
@H5F_init_g = external global i8, align 1

; Function Attrs: nounwind uwtable
define internal i32 @H5F__get_all_count_cb(ptr noundef %0, i64 noundef %1, ptr noundef %2) #0 {
  %4 = alloca ptr, align 8
  %5 = alloca i64, align 8
  %6 = alloca ptr, align 8
  %7 = alloca ptr, align 8
  %8 = alloca i32, align 4
  store ptr %0, ptr %4, align 8, !tbaa !22
  store i64 %1, ptr %5, align 8, !tbaa !3
  store ptr %2, ptr %6, align 8, !tbaa !22
  call void @llvm.lifetime.start.p0(i64 8, ptr %7) #5
  %9 = load ptr, ptr %6, align 8, !tbaa !22
  store ptr %9, ptr %7, align 8, !tbaa !22
  call void @llvm.lifetime.start.p0(i64 4, ptr %8) #5
  store i32 0, ptr %8, align 4, !tbaa !18
  %10 = load i8, ptr @H5F_init_g, align 1, !tbaa !7, !range !9, !noundef !10
  %11 = trunc i8 %10 to i1
  br i1 %11, label %16, label %12

12:                                               ; preds = %3
  %13 = load i8, ptr @H5_libterm_g, align 1, !tbaa !7, !range !9, !noundef !10
  %14 = trunc i8 %13 to i1
  %15 = xor i1 %14, true
  br label %16

16:                                               ; preds = %12, %3
  %17 = phi i1 [ true, %3 ], [ %15, %12 ]
  %18 = xor i1 %17, true
  %19 = xor i1 %18, true
  %20 = zext i1 %19 to i32
  %21 = sext i32 %20 to i64
  %22 = call i64 @llvm.expect.i64(i64 %21, i64 1)
  %23 = icmp ne i64 %22, 0
  br i1 %23, label %24, label %29

24:                                               ; preds = %16
  %25 = load ptr, ptr %7, align 8, !tbaa !22
  %26 = getelementptr inbounds nuw %struct.H5F_trav_obj_cnt_t, ptr %25, i32 0, i32 0
  %27 = load i64, ptr %26, align 8, !tbaa !21
  %28 = add i64 %27, 1
  store i64 %28, ptr %26, align 8, !tbaa !21
  br label %29

29:                                               ; preds = %24, %16
  %30 = load i32, ptr %8, align 4, !tbaa !18
  call void @llvm.lifetime.end.p0(i64 4, ptr %8) #5
  call void @llvm.lifetime.end.p0(i64 8, ptr %7) #5
  ret i32 %30
}