; Function Attrs: mustprogress nofree norecurse nosync nounwind willreturn memory(read, argmem: readwrite, inaccessiblemem: none) uwtable
define internal noundef i32 @H5F__get_all_count_cb(ptr readnone captures(none) %0, i64 %1, ptr noundef captures(none) %2) #4 {
  %4 = load i8, ptr @H5F_init_g, align 1, !tbaa !3, !range !7, !noundef !8
  %5 = trunc nuw i8 %4 to i1
  %6 = load i8, ptr @H5_libterm_g, align 1, !range !7
  %7 = trunc nuw i8 %6 to i1
  %8 = xor i1 %7, true
  %9 = select i1 %5, i1 true, i1 %8
  br i1 %9, label %10, label %13, !prof !9

10:                                               ; preds = %3
  %11 = load i64, ptr %2, align 8, !tbaa !21
  %12 = add i64 %11, 1
  store i64 %12, ptr %2, align 8, !tbaa !21
  br label %13

13:                                               ; preds = %10, %3
  ret i32 0
}